; Function Attrs: mustprogress nounwind uwtable
define void @_ZN8proxygen11HTTPMessage18unparseQueryParamsEv(ptr noundef nonnull align 8 dereferenceable(616) %this) local_unnamed_addr #3 align 2 personality ptr @__gxx_personality_v0 {
entry:
  %queryParams_ = getelementptr inbounds i8, ptr %this, i64 432
  %_M_parent.i.i.i.i = getelementptr inbounds i8, ptr %this, i64 448
  %0 = load ptr, ptr %_M_parent.i.i.i.i, align 8
  invoke void @_ZNSt8_Rb_treeINSt7__cxx1112basic_stringIcSt11char_traitsIcESaIcEEESt4pairIKS5_S5_ESt10_Select1stIS8_ESt4lessIS5_ESaIS8_EE8_M_eraseEPSt13_Rb_tree_nodeIS8_E(ptr noundef nonnull align 8 dereferenceable(48) %queryParams_, ptr noundef %0)
          to label %_ZNSt3mapINSt7__cxx1112basic_stringIcSt11char_traitsIcESaIcEEES5_St4lessIS5_ESaISt4pairIKS5_S5_EEE5clearEv.exit unwind label %terminate.lpad.i.i

terminate.lpad.i.i:                               ; preds = %entry
  %1 = landingpad { ptr, i32 }
          catch ptr null
  %2 = extractvalue { ptr, i32 } %1, 0
  tail call void @__clang_call_terminate(ptr %2) #35
  unreachable

_ZNSt3mapINSt7__cxx1112basic_stringIcSt11char_traitsIcESaIcEEES5_St4lessIS5_ESaISt4pairIKS5_S5_EEE5clearEv.exit: ; preds = %entry
  %add.ptr.i.i = getelementptr inbounds i8, ptr %this, i64 440
  store ptr null, ptr %_M_parent.i.i.i.i, align 8
  %_M_left.i.i.i = getelementptr inbounds i8, ptr %this, i64 456
  store ptr %add.ptr.i.i, ptr %_M_left.i.i.i, align 8
  %_M_right.i.i.i = getelementptr inbounds i8, ptr %this, i64 464
  store ptr %add.ptr.i.i, ptr %_M_right.i.i.i, align 8
  %_M_node_count.i.i.i = getelementptr inbounds i8, ptr %this, i64 472
  store i64 0, ptr %_M_node_count.i.i.i, align 8
  %parsedQueryParams_ = getelementptr inbounds i8, ptr %this, i64 610
  %bf.load = load i8, ptr %parsedQueryParams_, align 2
  %bf.clear = and i8 %bf.load, -3
  store i8 %bf.clear, ptr %parsedQueryParams_, align 2
  ret void
}